target datalayout = "e-m:e-p270:32:32-p271:32:32-p272:64:64-i64:64-i128:128-f80:128-n8:16:32:64-S128"
target triple = "x86_64-unknown-linux-gnu"

%struct.VmdkExtent = type { ptr, i8, i8, i8, i8, i8, i64, i64, i32, i32, i64, i64, i64, i64, i64, ptr, ptr, i32, i32, i32, ptr, [16 x i32], [16 x i32], i64, i64, ptr }
%struct.BdrvChild = type { ptr, ptr, ptr, i32, ptr, i64, i64, i8, i8, %struct.anon.11, %struct.anon.12 }
%struct.anon.11 = type { ptr, ptr }
%struct.anon.12 = type { ptr, ptr }
%struct.QEMUIOVector = type { ptr, i32, %union.anon.18 }
%union.anon.18 = type { %struct.anon.19 }
%struct.anon.19 = type { i32, %struct.iovec }
%struct.iovec = type { ptr, i64 }
%struct.VmdkGrainMarker = type <{ i64, i32, [0 x i8] }>

; Function Attrs: nounwind sspstrong uwtable
define internal void @qemu_iovec_init_buf(ptr noundef %qiov, ptr noundef %buf, i64 noundef %len) #0 {
entry:
  %qiov.addr = alloca ptr, align 8
  %buf.addr = alloca ptr, align 8
  %len.addr = alloca i64, align 8
  %.compoundliteral = alloca %struct.QEMUIOVector, align 8
  store ptr %qiov, ptr %qiov.addr, align 8
  store ptr %buf, ptr %buf.addr, align 8
  store i64 %len, ptr %len.addr, align 8
  %0 = load ptr, ptr %qiov.addr, align 8
  %iov = getelementptr inbounds %struct.QEMUIOVector, ptr %.compoundliteral, i32 0, i32 0
  %1 = load ptr, ptr %qiov.addr, align 8
  %2 = getelementptr inbounds %struct.QEMUIOVector, ptr %1, i32 0, i32 2
  %local_iov = getelementptr inbounds %struct.anon.19, ptr %2, i32 0, i32 1
  store ptr %local_iov, ptr %iov, align 8
  %niov = getelementptr inbounds %struct.QEMUIOVector, ptr %.compoundliteral, i32 0, i32 1
  store i32 1, ptr %niov, align 8
  %3 = getelementptr inbounds %struct.QEMUIOVector, ptr %.compoundliteral, i32 0, i32 2
  %nalloc = getelementptr inbounds %struct.anon.19, ptr %3, i32 0, i32 0
  store i32 -1, ptr %nalloc, align 8
  %local_iov1 = getelementptr inbounds %struct.anon.19, ptr %3, i32 0, i32 1
  %iov_base = getelementptr inbounds %struct.iovec, ptr %local_iov1, i32 0, i32 0
  %4 = load ptr, ptr %buf.addr, align 8
  store ptr %4, ptr %iov_base, align 8
  %iov_len = getelementptr inbounds %struct.iovec, ptr %local_iov1, i32 0, i32 1
  %5 = load i64, ptr %len.addr, align 8
  store i64 %5, ptr %iov_len, align 8
  call void @llvm.memcpy.p0.p0.i64(ptr align 8 %0, ptr align 8 %.compoundliteral, i64 40, i1 false)
  ret void
}

; Function Attrs: nounwind sspstrong uwtable
define internal i32 @cpu_to_le32(i32 noundef %v) #0 {
entry:
  %v.addr = alloca i32, align 4
  store i32 %v, ptr %v.addr, align 4
  %0 = load i32, ptr %v.addr, align 4
  ret i32 %0
}

; Function Attrs: nounwind sspstrong uwtable
define internal i64 @cpu_to_le64(i64 noundef %v) #0 {
entry:
  %v.addr = alloca i64, align 8
  store i64 %v, ptr %v.addr, align 8
  %0 = load i64, ptr %v.addr, align 8
  ret i64 %0
}

; Function Attrs: nounwind sspstrong uwtable
define internal i32 @vmdk_write_extent(ptr noundef %extent, i64 noundef %cluster_offset, i64 noundef %offset_in_cluster, ptr noundef %qiov, i64 noundef %qiov_offset, i64 noundef %n_bytes, i64 noundef %offset) #0 {
entry:
  %extent.addr = alloca ptr, align 8
  %cluster_offset.addr = alloca i64, align 8
  %offset_in_cluster.addr = alloca i64, align 8
  %qiov.addr = alloca ptr, align 8
  %qiov_offset.addr = alloca i64, align 8
  %n_bytes.addr = alloca i64, align 8
  %offset.addr = alloca i64, align 8
  %ret = alloca i32, align 4
  %data = alloca ptr, align 8
  %buf_len = alloca i64, align 8
  %local_qiov = alloca %struct.QEMUIOVector, align 8
  %write_offset = alloca i64, align 8
  %write_end_sector = alloca i64, align 8
  %compressed_data = alloca ptr, align 8
  %_a13 = alloca i64, align 8
  %_b14 = alloca i64, align 8
  %tmp = alloca i64, align 8
  store ptr %extent, ptr %extent.addr, align 8
  store i64 %cluster_offset, ptr %cluster_offset.addr, align 8
  store i64 %offset_in_cluster, ptr %offset_in_cluster.addr, align 8
  store ptr %qiov, ptr %qiov.addr, align 8
  store i64 %qiov_offset, ptr %qiov_offset.addr, align 8
  store i64 %n_bytes, ptr %n_bytes.addr, align 8
  store i64 %offset, ptr %offset.addr, align 8
  store ptr null, ptr %data, align 8
  %0 = load ptr, ptr %extent.addr, align 8
  %compressed = getelementptr inbounds %struct.VmdkExtent, ptr %0, i32 0, i32 2
  %1 = load i8, ptr %compressed, align 1
  %tobool = trunc i8 %1 to i1
  br i1 %tobool, label %if.then, label %if.else

if.then:                                          ; preds = %entry
  %2 = load i64, ptr %offset_in_cluster.addr, align 8
  %tobool1 = icmp ne i64 %2, 0
  br i1 %tobool1, label %if.then8, label %lor.lhs.false

lor.lhs.false:                                    ; preds = %if.then
  %3 = load i64, ptr %n_bytes.addr, align 8
  %4 = load ptr, ptr %extent.addr, align 8
  %cluster_sectors = getelementptr inbounds %struct.VmdkExtent, ptr %4, i32 0, i32 23
  %5 = load i64, ptr %cluster_sectors, align 8
  %mul = mul i64 %5, 512
  %cmp = icmp ugt i64 %3, %mul
  br i1 %cmp, label %if.then8, label %lor.lhs.false2

lor.lhs.false2:                                   ; preds = %lor.lhs.false
  %6 = load i64, ptr %n_bytes.addr, align 8
  %7 = load ptr, ptr %extent.addr, align 8
  %cluster_sectors3 = getelementptr inbounds %struct.VmdkExtent, ptr %7, i32 0, i32 23
  %8 = load i64, ptr %cluster_sectors3, align 8
  %mul4 = mul i64 %8, 512
  %cmp5 = icmp ult i64 %6, %mul4
  br i1 %cmp5, label %land.lhs.true, label %if.end

land.lhs.true:                                    ; preds = %lor.lhs.false2
  %9 = load i64, ptr %offset.addr, align 8
  %10 = load i64, ptr %n_bytes.addr, align 8
  %add = add i64 %9, %10
  %11 = load ptr, ptr %extent.addr, align 8
  %end_sector = getelementptr inbounds %struct.VmdkExtent, ptr %11, i32 0, i32 11
  %12 = load i64, ptr %end_sector, align 8
  %mul6 = mul i64 %12, 512
  %cmp7 = icmp ne i64 %add, %mul6
  br i1 %cmp7, label %if.then8, label %if.end

if.then8:                                         ; preds = %land.lhs.true, %lor.lhs.false, %if.then
  store i32 -22, ptr %ret, align 4
  br label %out

if.end:                                           ; preds = %land.lhs.true, %lor.lhs.false2
  %13 = load ptr, ptr %extent.addr, align 8
  %has_marker = getelementptr inbounds %struct.VmdkExtent, ptr %13, i32 0, i32 3
  %14 = load i8, ptr %has_marker, align 2
  %tobool9 = trunc i8 %14 to i1
  br i1 %tobool9, label %if.end11, label %if.then10

if.then10:                                        ; preds = %if.end
  store i32 -22, ptr %ret, align 4
  br label %out

if.end11:                                         ; preds = %if.end
  %15 = load ptr, ptr %extent.addr, align 8
  %cluster_sectors12 = getelementptr inbounds %struct.VmdkExtent, ptr %15, i32 0, i32 23
  %16 = load i64, ptr %cluster_sectors12, align 8
  %shl = shl i64 %16, 9
  %mul13 = mul i64 %shl, 2
  store i64 %mul13, ptr %buf_len, align 8
  %17 = load i64, ptr %buf_len, align 8
  %add14 = add i64 %17, 12
  %call = call noalias ptr @g_malloc(i64 noundef %add14) #12
  store ptr %call, ptr %data, align 8
  %18 = load i64, ptr %n_bytes.addr, align 8
  %call15 = call noalias ptr @g_malloc(i64 noundef %18) #12
  store ptr %call15, ptr %compressed_data, align 8
  %19 = load ptr, ptr %qiov.addr, align 8
  %20 = load i64, ptr %qiov_offset.addr, align 8
  %21 = load ptr, ptr %compressed_data, align 8
  %22 = load i64, ptr %n_bytes.addr, align 8
  %call16 = call i64 @qemu_iovec_to_buf(ptr noundef %19, i64 noundef %20, ptr noundef %21, i64 noundef %22)
  %23 = load ptr, ptr %data, align 8
  %data17 = getelementptr inbounds %struct.VmdkGrainMarker, ptr %23, i32 0, i32 2
  %arraydecay = getelementptr inbounds [0 x i8], ptr %data17, i64 0, i64 0
  %24 = load ptr, ptr %compressed_data, align 8
  %25 = load i64, ptr %n_bytes.addr, align 8
  %call18 = call i32 @compress(ptr noundef %arraydecay, ptr noundef %buf_len, ptr noundef %24, i64 noundef %25)
  store i32 %call18, ptr %ret, align 4
  %26 = load ptr, ptr %compressed_data, align 8
  call void @g_free(ptr noundef %26)
  %27 = load i32, ptr %ret, align 4
  %cmp19 = icmp ne i32 %27, 0
  br i1 %cmp19, label %if.then22, label %lor.lhs.false20

lor.lhs.false20:                                  ; preds = %if.end11
  %28 = load i64, ptr %buf_len, align 8
  %cmp21 = icmp eq i64 %28, 0
  br i1 %cmp21, label %if.then22, label %if.end23

if.then22:                                        ; preds = %lor.lhs.false20, %if.end11
  store i32 -22, ptr %ret, align 4
  br label %out

if.end23:                                         ; preds = %lor.lhs.false20
  %29 = load i64, ptr %offset.addr, align 8
  %shr = lshr i64 %29, 9
  %call24 = call i64 @cpu_to_le64(i64 noundef %shr)
  %30 = load ptr, ptr %data, align 8
  %lba = getelementptr inbounds %struct.VmdkGrainMarker, ptr %30, i32 0, i32 0
  store i64 %call24, ptr %lba, align 1
  %31 = load i64, ptr %buf_len, align 8
  %conv = trunc i64 %31 to i32
  %call25 = call i32 @cpu_to_le32(i32 noundef %conv)
  %32 = load ptr, ptr %data, align 8
  %size = getelementptr inbounds %struct.VmdkGrainMarker, ptr %32, i32 0, i32 1
  store i32 %call25, ptr %size, align 1
  %33 = load i64, ptr %buf_len, align 8
  %add26 = add i64 %33, 12
  store i64 %add26, ptr %n_bytes.addr, align 8
  %34 = load ptr, ptr %data, align 8
  %35 = load i64, ptr %n_bytes.addr, align 8
  call void @qemu_iovec_init_buf(ptr noundef %local_qiov, ptr noundef %34, i64 noundef %35)
  br label %do.body

do.body:                                          ; preds = %if.end23
  %36 = load ptr, ptr %extent.addr, align 8
  %file = getelementptr inbounds %struct.VmdkExtent, ptr %36, i32 0, i32 0
  %37 = load ptr, ptr %file, align 8
  %tobool27 = icmp ne ptr %37, null
  br i1 %tobool27, label %if.then28, label %if.end30

if.then28:                                        ; preds = %do.body
  %38 = load ptr, ptr %extent.addr, align 8
  %file29 = getelementptr inbounds %struct.VmdkExtent, ptr %38, i32 0, i32 0
  %39 = load ptr, ptr %file29, align 8
  %bs = getelementptr inbounds %struct.BdrvChild, ptr %39, i32 0, i32 0
  %40 = load ptr, ptr %bs, align 8
  call void @bdrv_co_debug_event(ptr noundef %40, i32 noundef 13)
  br label %if.end30

if.end30:                                         ; preds = %if.then28, %do.body
  br label %do.end

do.end:                                           ; preds = %if.end30
  br label %if.end39

if.else:                                          ; preds = %entry
  %41 = load ptr, ptr %qiov.addr, align 8
  %niov = getelementptr inbounds %struct.QEMUIOVector, ptr %41, i32 0, i32 1
  %42 = load i32, ptr %niov, align 8
  call void @qemu_iovec_init(ptr noundef %local_qiov, i32 noundef %42)
  %43 = load ptr, ptr %qiov.addr, align 8
  %44 = load i64, ptr %qiov_offset.addr, align 8
  %45 = load i64, ptr %n_bytes.addr, align 8
  call void @qemu_iovec_concat(ptr noundef %local_qiov, ptr noundef %43, i64 noundef %44, i64 noundef %45)
  br label %do.body31

do.body31:                                        ; preds = %if.else
  %46 = load ptr, ptr %extent.addr, align 8
  %file32 = getelementptr inbounds %struct.VmdkExtent, ptr %46, i32 0, i32 0
  %47 = load ptr, ptr %file32, align 8
  %tobool33 = icmp ne ptr %47, null
  br i1 %tobool33, label %if.then34, label %if.end37

if.then34:                                        ; preds = %do.body31
  %48 = load ptr, ptr %extent.addr, align 8
  %file35 = getelementptr inbounds %struct.VmdkExtent, ptr %48, i32 0, i32 0
  %49 = load ptr, ptr %file35, align 8
  %bs36 = getelementptr inbounds %struct.BdrvChild, ptr %49, i32 0, i32 0
  %50 = load ptr, ptr %bs36, align 8
  call void @bdrv_co_debug_event(ptr noundef %50, i32 noundef 12)
  br label %if.end37

if.end37:                                         ; preds = %if.then34, %do.body31
  br label %do.end38

do.end38:                                         ; preds = %if.end37
  br label %if.end39

if.end39:                                         ; preds = %do.end38, %do.end
  %51 = load i64, ptr %cluster_offset.addr, align 8
  %52 = load i64, ptr %offset_in_cluster.addr, align 8
  %add40 = add i64 %51, %52
  store i64 %add40, ptr %write_offset, align 8
  %53 = load ptr, ptr %extent.addr, align 8
  %file41 = getelementptr inbounds %struct.VmdkExtent, ptr %53, i32 0, i32 0
  %54 = load ptr, ptr %file41, align 8
  %55 = load i64, ptr %write_offset, align 8
  %56 = load i64, ptr %n_bytes.addr, align 8
  %call42 = call i32 @bdrv_co_pwritev(ptr noundef %54, i64 noundef %55, i64 noundef %56, ptr noundef %local_qiov, i32 noundef 0)
  store i32 %call42, ptr %ret, align 4
  %57 = load i64, ptr %write_offset, align 8
  %58 = load i64, ptr %n_bytes.addr, align 8
  %add43 = add i64 %57, %58
  %add44 = add i64 %add43, 512
  %sub = sub i64 %add44, 1
  %div = udiv i64 %sub, 512
  store i64 %div, ptr %write_end_sector, align 8
  %59 = load ptr, ptr %extent.addr, align 8
  %compressed45 = getelementptr inbounds %struct.VmdkExtent, ptr %59, i32 0, i32 2
  %60 = load i8, ptr %compressed45, align 1
  %tobool46 = trunc i8 %60 to i1
  br i1 %tobool46, label %if.then47, label %if.else48

if.then47:                                        ; preds = %if.end39
  %61 = load i64, ptr %write_end_sector, align 8
  %62 = load ptr, ptr %extent.addr, align 8
  %next_cluster_sector = getelementptr inbounds %struct.VmdkExtent, ptr %62, i32 0, i32 24
  store i64 %61, ptr %next_cluster_sector, align 8
  br label %if.end53

if.else48:                                        ; preds = %if.end39
  %63 = load ptr, ptr %extent.addr, align 8
  %next_cluster_sector49 = getelementptr inbounds %struct.VmdkExtent, ptr %63, i32 0, i32 24
  %64 = load i64, ptr %next_cluster_sector49, align 8
  store i64 %64, ptr %_a13, align 8
  %65 = load i64, ptr %write_end_sector, align 8
  store i64 %65, ptr %_b14, align 8
  %66 = load i64, ptr %_a13, align 8
  %67 = load i64, ptr %_b14, align 8
  %cmp50 = icmp sgt i64 %66, %67
  br i1 %cmp50, label %cond.true, label %cond.false

cond.true:                                        ; preds = %if.else48
  %68 = load i64, ptr %_a13, align 8
  br label %cond.end

cond.false:                                       ; preds = %if.else48
  %69 = load i64, ptr %_b14, align 8
  br label %cond.end

cond.end:                                         ; preds = %cond.false, %cond.true
  %cond = phi i64 [ %68, %cond.true ], [ %69, %cond.false ]
  store i64 %cond, ptr %tmp, align 8
  %70 = load i64, ptr %tmp, align 8
  %71 = load ptr, ptr %extent.addr, align 8
  %next_cluster_sector52 = getelementptr inbounds %struct.VmdkExtent, ptr %71, i32 0, i32 24
  store i64 %70, ptr %next_cluster_sector52, align 8
  br label %if.end53

if.end53:                                         ; preds = %cond.end, %if.then47
  %72 = load i32, ptr %ret, align 4
  %cmp54 = icmp slt i32 %72, 0
  br i1 %cmp54, label %if.then56, label %if.end57

if.then56:                                        ; preds = %if.end53
  br label %out

if.end57:                                         ; preds = %if.end53
  store i32 0, ptr %ret, align 4
  br label %out

out:                                              ; preds = %if.end57, %if.then56, %if.then22, %if.then10, %if.then8
  %73 = load ptr, ptr %data, align 8
  call void @g_free(ptr noundef %73)
  %74 = load ptr, ptr %extent.addr, align 8
  %compressed58 = getelementptr inbounds %struct.VmdkExtent, ptr %74, i32 0, i32 2
  %75 = load i8, ptr %compressed58, align 1
  %tobool59 = trunc i8 %75 to i1
  br i1 %tobool59, label %if.end61, label %if.then60

if.then60:                                        ; preds = %out
  call void @qemu_iovec_destroy(ptr noundef %local_qiov)
  br label %if.end61

if.end61:                                         ; preds = %if.then60, %out
  %76 = load i32, ptr %ret, align 4
  ret i32 %76
}