; Function Attrs: nounwind sspstrong uwtable
define internal range(i32 -2147483648, 1) i32 @vmdk_write_extent(ptr noundef captures(none) %extent, i64 noundef %cluster_offset, i64 noundef %offset_in_cluster, ptr noundef %qiov, i64 noundef %qiov_offset, i64 noundef %n_bytes, i64 noundef %offset) #0 {
entry:
  %buf_len = alloca i64, align 8
  %local_qiov = alloca %struct.QEMUIOVector, align 8
  %compressed = getelementptr inbounds nuw i8, ptr %extent, i64 9
  %0 = load i8, ptr %compressed, align 1
  %tobool = trunc i8 %0 to i1
  br i1 %tobool, label %if.then, label %if.else

if.then:                                          ; preds = %entry
  %tobool1.not = icmp eq i64 %offset_in_cluster, 0
  br i1 %tobool1.not, label %lor.lhs.false, label %out

lor.lhs.false:                                    ; preds = %if.then
  %cluster_sectors = getelementptr inbounds nuw i8, ptr %extent, i64 248
  %1 = load i64, ptr %cluster_sectors, align 8
  %mul = shl i64 %1, 9
  %cmp = icmp ugt i64 %n_bytes, %mul
  br i1 %cmp, label %out, label %lor.lhs.false2

lor.lhs.false2:                                   ; preds = %lor.lhs.false
  %cmp5 = icmp ult i64 %n_bytes, %mul
  br i1 %cmp5, label %land.lhs.true, label %if.end

land.lhs.true:                                    ; preds = %lor.lhs.false2
  %add = add i64 %offset, %n_bytes
  %end_sector = getelementptr inbounds nuw i8, ptr %extent, i64 48
  %2 = load i64, ptr %end_sector, align 8
  %mul6 = shl i64 %2, 9
  %cmp7.not = icmp eq i64 %add, %mul6
  br i1 %cmp7.not, label %if.end, label %out

if.end:                                           ; preds = %land.lhs.true, %lor.lhs.false2
  %has_marker = getelementptr inbounds nuw i8, ptr %extent, i64 10
  %3 = load i8, ptr %has_marker, align 2
  %tobool9 = trunc i8 %3 to i1
  br i1 %tobool9, label %if.end11, label %out

if.end11:                                         ; preds = %if.end
  %mul13 = shl i64 %1, 10
  store i64 %mul13, ptr %buf_len, align 8
  %add14 = or disjoint i64 %mul13, 12
  %call = tail call noalias ptr @g_malloc(i64 noundef %add14) #18
  %call15 = tail call noalias ptr @g_malloc(i64 noundef %n_bytes) #18
  %call16 = tail call i64 @qemu_iovec_to_buf(ptr noundef %qiov, i64 noundef %qiov_offset, ptr noundef %call15, i64 noundef %n_bytes) #15
  %data17 = getelementptr inbounds nuw i8, ptr %call, i64 12
  %call18 = call i32 @compress(ptr noundef nonnull %data17, ptr noundef nonnull %buf_len, ptr noundef %call15, i64 noundef %n_bytes) #15
  call void @g_free(ptr noundef %call15) #15
  %cmp19 = icmp ne i32 %call18, 0
  %4 = load i64, ptr %buf_len, align 8
  %cmp21 = icmp eq i64 %4, 0
  %or.cond = select i1 %cmp19, i1 true, i1 %cmp21
  br i1 %or.cond, label %out, label %if.end23

if.end23:                                         ; preds = %if.end11
  %shr = lshr i64 %offset, 9
  store i64 %shr, ptr %call, align 1
  %conv = trunc i64 %4 to i32
  %size = getelementptr inbounds nuw i8, ptr %call, i64 8
  store i32 %conv, ptr %size, align 1
  %add26 = add i64 %4, 12
  %5 = getelementptr inbounds nuw i8, ptr %local_qiov, i64 16
  %local_iov.i = getelementptr inbounds nuw i8, ptr %local_qiov, i64 24
  store ptr %local_iov.i, ptr %local_qiov, align 8
  %.compoundliteral.sroa.2.0..sroa_idx.i = getelementptr inbounds nuw i8, ptr %local_qiov, i64 8
  store i32 1, ptr %.compoundliteral.sroa.2.0..sroa_idx.i, align 8
  store i32 -1, ptr %5, align 8
  store ptr %call, ptr %local_iov.i, align 8
  %.compoundliteral.sroa.5.0..sroa_idx.i = getelementptr inbounds nuw i8, ptr %local_qiov, i64 32
  store i64 %add26, ptr %.compoundliteral.sroa.5.0..sroa_idx.i, align 8
  %6 = load ptr, ptr %extent, align 8
  %tobool27.not = icmp eq ptr %6, null
  br i1 %tobool27.not, label %if.end39, label %if.end39.sink.split

if.else:                                          ; preds = %entry
  %niov = getelementptr inbounds nuw i8, ptr %qiov, i64 8
  %7 = load i32, ptr %niov, align 8
  call void @qemu_iovec_init(ptr noundef nonnull %local_qiov, i32 noundef %7) #15
  call void @qemu_iovec_concat(ptr noundef nonnull %local_qiov, ptr noundef %qiov, i64 noundef %qiov_offset, i64 noundef %n_bytes) #15
  %8 = load ptr, ptr %extent, align 8
  %tobool33.not = icmp eq ptr %8, null
  br i1 %tobool33.not, label %if.end39, label %if.end39.sink.split

if.end39.sink.split:                              ; preds = %if.else, %if.end23
  %.sink45 = phi ptr [ %6, %if.end23 ], [ %8, %if.else ]
  %.sink44 = phi i32 [ 13, %if.end23 ], [ 12, %if.else ]
  %data.1.ph = phi ptr [ %call, %if.end23 ], [ null, %if.else ]
  %n_bytes.addr.0.ph = phi i64 [ %add26, %if.end23 ], [ %n_bytes, %if.else ]
  %9 = load ptr, ptr %.sink45, align 8
  call void @bdrv_co_debug_event(ptr noundef %9, i32 noundef %.sink44) #15
  br label %if.end39

if.end39:                                         ; preds = %if.end39.sink.split, %if.else, %if.end23
  %data.1 = phi ptr [ %call, %if.end23 ], [ null, %if.else ], [ %data.1.ph, %if.end39.sink.split ]
  %n_bytes.addr.0 = phi i64 [ %add26, %if.end23 ], [ %n_bytes, %if.else ], [ %n_bytes.addr.0.ph, %if.end39.sink.split ]
  %add40 = add i64 %offset_in_cluster, %cluster_offset
  %10 = load ptr, ptr %extent, align 8
  %call42 = call i32 @bdrv_co_pwritev(ptr noundef %10, i64 noundef %add40, i64 noundef %n_bytes.addr.0, ptr noundef nonnull %local_qiov, i32 noundef 0) #15
  %add43 = add i64 %add40, 511
  %sub = add i64 %add43, %n_bytes.addr.0
  %div43 = lshr i64 %sub, 9
  %11 = load i8, ptr %compressed, align 1
  %tobool46 = trunc i8 %11 to i1
  %next_cluster_sector = getelementptr inbounds nuw i8, ptr %extent, i64 256
  br i1 %tobool46, label %if.end53, label %if.else48

if.else48:                                        ; preds = %if.end39
  %12 = load i64, ptr %next_cluster_sector, align 8
  %cond = call i64 @llvm.smax.i64(i64 %12, i64 %div43)
  br label %if.end53

if.end53:                                         ; preds = %if.end39, %if.else48
  %cond.sink = phi i64 [ %cond, %if.else48 ], [ %div43, %if.end39 ]
  store i64 %cond.sink, ptr %next_cluster_sector, align 8
  %spec.store.select = call i32 @llvm.smin.i32(i32 %call42, i32 0)
  br label %out

out:                                              ; preds = %if.end11, %if.end, %if.then, %lor.lhs.false, %land.lhs.true, %if.end53
  %data.0 = phi ptr [ %data.1, %if.end53 ], [ null, %land.lhs.true ], [ null, %lor.lhs.false ], [ null, %if.then ], [ null, %if.end ], [ %call, %if.end11 ]
  %ret.0 = phi i32 [ %spec.store.select, %if.end53 ], [ -22, %land.lhs.true ], [ -22, %lor.lhs.false ], [ -22, %if.then ], [ -22, %if.end ], [ -22, %if.end11 ]
  call void @g_free(ptr noundef %data.0) #15
  %13 = load i8, ptr %compressed, align 1
  %tobool59 = trunc i8 %13 to i1
  br i1 %tobool59, label %if.end61, label %if.then60

if.then60:                                        ; preds = %out
  call void @qemu_iovec_destroy(ptr noundef nonnull %local_qiov) #15
  br label %if.end61

if.end61:                                         ; preds = %if.then60, %out
  ret i32 %ret.0
}